target datalayout = "e-m:e-p270:32:32-p271:32:32-p272:64:64-i64:64-i128:128-f80:128-n8:16:32:64-S128"
target triple = "x86_64-unknown-linux-gnu"

%class.rational = type { %class.mpq }
%class.mpq = type { %class.mpz, %class.mpz }
%class.mpz = type { i32, i8, ptr }

@_ZN8rational13g_mpq_managerE = external global ptr, align 8

; Function Attrs: mustprogress nounwind uwtable
define linkonce_odr hidden noundef zeroext i1 @_ZN11mpz_managerILb1EE6is_oneERK3mpz(ptr noundef nonnull align 8 dereferenceable(16) %a) #4 comdat align 2 {
entry:
  %a.addr = alloca ptr, align 8
  store ptr %a, ptr %a.addr, align 8
  %0 = load ptr, ptr %a.addr, align 8
  %call = call noundef zeroext i1 @_ZN11mpz_managerILb1EE8is_smallERK3mpz(ptr noundef nonnull align 8 dereferenceable(16) %0)
  br i1 %call, label %land.rhs, label %land.end

land.rhs:                                         ; preds = %entry
  %1 = load ptr, ptr %a.addr, align 8
  %m_val = getelementptr inbounds %class.mpz, ptr %1, i32 0, i32 0
  %2 = load i32, ptr %m_val, align 8
  %cmp = icmp eq i32 %2, 1
  br label %land.end

land.end:                                         ; preds = %land.rhs, %entry
  %3 = phi i1 [ false, %entry ], [ %cmp, %land.rhs ]
  ret i1 %3
}

; Function Attrs: mustprogress nounwind uwtable
define linkonce_odr hidden noundef zeroext i1 @_ZN11mpz_managerILb1EE8is_smallERK3mpz(ptr noundef nonnull align 8 dereferenceable(16) %a) #4 comdat align 2 {
entry:
  %a.addr = alloca ptr, align 8
  store ptr %a, ptr %a.addr, align 8
  %0 = load ptr, ptr %a.addr, align 8
  %m_kind = getelementptr inbounds %class.mpz, ptr %0, i32 0, i32 1
  %bf.load = load i8, ptr %m_kind, align 4
  %bf.clear = and i8 %bf.load, 1
  %bf.cast = zext i8 %bf.clear to i32
  %cmp = icmp eq i32 %bf.cast, 0
  ret i1 %cmp
}

; Function Attrs: mustprogress uwtable
define linkonce_odr hidden noundef zeroext i1 @_ZN11mpq_managerILb1EE6is_oneERK3mpz(ptr noundef nonnull align 8 dereferenceable(16) %a) #5 comdat align 2 {
entry:
  %a.addr = alloca ptr, align 8
  store ptr %a, ptr %a.addr, align 8
  %0 = load ptr, ptr %a.addr, align 8
  %call = call noundef zeroext i1 @_ZN11mpz_managerILb1EE6is_oneERK3mpz(ptr noundef nonnull align 8 dereferenceable(16) %0)
  ret i1 %call
}

; Function Attrs: mustprogress uwtable
define linkonce_odr hidden void @_ZN11mpz_managerILb1EE3setER3mpzRKS1_(ptr noundef nonnull align 8 dereferenceable(600) %this, ptr noundef nonnull align 8 dereferenceable(16) %target, ptr noundef nonnull align 8 dereferenceable(16) %source) #5 comdat align 2 {
entry:
  %this.addr = alloca ptr, align 8
  %target.addr = alloca ptr, align 8
  %source.addr = alloca ptr, align 8
  store ptr %this, ptr %this.addr, align 8
  store ptr %target, ptr %target.addr, align 8
  store ptr %source, ptr %source.addr, align 8
  %this1 = load ptr, ptr %this.addr, align 8
  %0 = load ptr, ptr %source.addr, align 8
  %call = call noundef zeroext i1 @_ZN11mpz_managerILb1EE8is_smallERK3mpz(ptr noundef nonnull align 8 dereferenceable(16) %0)
  br i1 %call, label %if.then, label %if.else

if.then:                                          ; preds = %entry
  %1 = load ptr, ptr %source.addr, align 8
  %m_val = getelementptr inbounds %class.mpz, ptr %1, i32 0, i32 0
  %2 = load i32, ptr %m_val, align 8
  %3 = load ptr, ptr %target.addr, align 8
  %m_val2 = getelementptr inbounds %class.mpz, ptr %3, i32 0, i32 0
  store i32 %2, ptr %m_val2, align 8
  %4 = load ptr, ptr %target.addr, align 8
  %m_kind = getelementptr inbounds %class.mpz, ptr %4, i32 0, i32 1
  %bf.load = load i8, ptr %m_kind, align 4
  %bf.clear = and i8 %bf.load, -2
  %bf.set = or i8 %bf.clear, 0
  store i8 %bf.set, ptr %m_kind, align 4
  br label %if.end

if.else:                                          ; preds = %entry
  %5 = load ptr, ptr %target.addr, align 8
  %6 = load ptr, ptr %source.addr, align 8
  call void @_ZN11mpz_managerILb1EE7big_setER3mpzRKS1_(ptr noundef nonnull align 8 dereferenceable(600) %this1, ptr noundef nonnull align 8 dereferenceable(16) %5, ptr noundef nonnull align 8 dereferenceable(16) %6)
  br label %if.end

if.end:                                           ; preds = %if.else, %if.then
  ret void
}

; Function Attrs: mustprogress uwtable
define linkonce_odr hidden noundef i32 @_ZN11mpq_managerILb1EE7bitsizeERK3mpz(ptr noundef nonnull align 8 dereferenceable(728) %this, ptr noundef nonnull align 8 dereferenceable(16) %a) #5 comdat align 2 {
entry:
  %this.addr = alloca ptr, align 8
  %a.addr = alloca ptr, align 8
  store ptr %this, ptr %this.addr, align 8
  store ptr %a, ptr %a.addr, align 8
  %this1 = load ptr, ptr %this.addr, align 8
  %0 = load ptr, ptr %a.addr, align 8
  %call = call noundef i32 @_ZN11mpz_managerILb1EE7bitsizeERK3mpz(ptr noundef nonnull align 8 dereferenceable(600) %this1, ptr noundef nonnull align 8 dereferenceable(16) %0)
  ret i32 %call
}

; Function Attrs: mustprogress uwtable
define linkonce_odr hidden noundef zeroext i1 @_ZN11mpq_managerILb1EE6is_intERK3mpq(ptr noundef nonnull align 8 dereferenceable(32) %a) #5 comdat align 2 {
entry:
  %a.addr = alloca ptr, align 8
  store ptr %a, ptr %a.addr, align 8
  %0 = load ptr, ptr %a.addr, align 8
  %m_den = getelementptr inbounds %class.mpq, ptr %0, i32 0, i32 1
  %call = call noundef zeroext i1 @_ZN11mpq_managerILb1EE6is_oneERK3mpz(ptr noundef nonnull align 8 dereferenceable(16) %m_den)
  ret i1 %call
}

; Function Attrs: mustprogress uwtable
define linkonce_odr hidden void @_ZN11mpq_managerILb1EE3setER3mpzRKS1_(ptr noundef nonnull align 8 dereferenceable(728) %this, ptr noundef nonnull align 8 dereferenceable(16) %target, ptr noundef nonnull align 8 dereferenceable(16) %source) #5 comdat align 2 {
entry:
  %this.addr = alloca ptr, align 8
  %target.addr = alloca ptr, align 8
  %source.addr = alloca ptr, align 8
  store ptr %this, ptr %this.addr, align 8
  store ptr %target, ptr %target.addr, align 8
  store ptr %source, ptr %source.addr, align 8
  %this1 = load ptr, ptr %this.addr, align 8
  %0 = load ptr, ptr %target.addr, align 8
  %1 = load ptr, ptr %source.addr, align 8
  call void @_ZN11mpz_managerILb1EE3setER3mpzRKS1_(ptr noundef nonnull align 8 dereferenceable(600) %this1, ptr noundef nonnull align 8 dereferenceable(16) %0, ptr noundef nonnull align 8 dereferenceable(16) %1)
  ret void
}

; Function Attrs: mustprogress nounwind uwtable
define linkonce_odr hidden void @_ZN3mpzC2Ei(ptr noundef nonnull align 8 dereferenceable(16) %this, i32 noundef %v) unnamed_addr #4 comdat align 2 {
entry:
  %this.addr = alloca ptr, align 8
  %v.addr = alloca i32, align 4
  store ptr %this, ptr %this.addr, align 8
  store i32 %v, ptr %v.addr, align 4
  %this1 = load ptr, ptr %this.addr, align 8
  %m_val = getelementptr inbounds %class.mpz, ptr %this1, i32 0, i32 0
  %0 = load i32, ptr %v.addr, align 4
  store i32 %0, ptr %m_val, align 8
  %m_kind = getelementptr inbounds %class.mpz, ptr %this1, i32 0, i32 1
  %bf.load = load i8, ptr %m_kind, align 4
  %bf.clear = and i8 %bf.load, -2
  %bf.set = or i8 %bf.clear, 0
  store i8 %bf.set, ptr %m_kind, align 4
  %m_owner = getelementptr inbounds %class.mpz, ptr %this1, i32 0, i32 1
  %bf.load2 = load i8, ptr %m_owner, align 4
  %bf.clear3 = and i8 %bf.load2, -3
  %bf.set4 = or i8 %bf.clear3, 0
  store i8 %bf.set4, ptr %m_owner, align 4
  %m_ptr = getelementptr inbounds %class.mpz, ptr %this1, i32 0, i32 2
  store ptr null, ptr %m_ptr, align 8
  ret void
}

; Function Attrs: mustprogress nounwind uwtable
define linkonce_odr hidden void @_ZN3mpzC2Ev(ptr noundef nonnull align 8 dereferenceable(16) %this) unnamed_addr #4 comdat align 2 {
entry:
  %this.addr = alloca ptr, align 8
  store ptr %this, ptr %this.addr, align 8
  %this1 = load ptr, ptr %this.addr, align 8
  %m_val = getelementptr inbounds %class.mpz, ptr %this1, i32 0, i32 0
  store i32 0, ptr %m_val, align 8
  %m_kind = getelementptr inbounds %class.mpz, ptr %this1, i32 0, i32 1
  %bf.load = load i8, ptr %m_kind, align 4
  %bf.clear = and i8 %bf.load, -2
  %bf.set = or i8 %bf.clear, 0
  store i8 %bf.set, ptr %m_kind, align 4
  %m_owner = getelementptr inbounds %class.mpz, ptr %this1, i32 0, i32 1
  %bf.load2 = load i8, ptr %m_owner, align 4
  %bf.clear3 = and i8 %bf.load2, -3
  %bf.set4 = or i8 %bf.clear3, 0
  store i8 %bf.set4, ptr %m_owner, align 4
  %m_ptr = getelementptr inbounds %class.mpz, ptr %this1, i32 0, i32 2
  store ptr null, ptr %m_ptr, align 8
  ret void
}

; Function Attrs: mustprogress uwtable
define linkonce_odr hidden noundef i32 @_ZN11mpq_managerILb1EE7bitsizeERK3mpq(ptr noundef nonnull align 8 dereferenceable(728) %this, ptr noundef nonnull align 8 dereferenceable(32) %a) #5 comdat align 2 {
entry:
  %this.addr = alloca ptr, align 8
  %a.addr = alloca ptr, align 8
  store ptr %this, ptr %this.addr, align 8
  store ptr %a, ptr %a.addr, align 8
  %this1 = load ptr, ptr %this.addr, align 8
  %0 = load ptr, ptr %a.addr, align 8
  %call = call noundef zeroext i1 @_ZN11mpq_managerILb1EE6is_intERK3mpq(ptr noundef nonnull align 8 dereferenceable(32) %0)
  br i1 %call, label %cond.true, label %cond.false

cond.true:                                        ; preds = %entry
  %1 = load ptr, ptr %a.addr, align 8
  %m_num = getelementptr inbounds %class.mpq, ptr %1, i32 0, i32 0
  %call2 = call noundef i32 @_ZN11mpq_managerILb1EE7bitsizeERK3mpz(ptr noundef nonnull align 8 dereferenceable(728) %this1, ptr noundef nonnull align 8 dereferenceable(16) %m_num)
  br label %cond.end

cond.false:                                       ; preds = %entry
  %2 = load ptr, ptr %a.addr, align 8
  %m_num3 = getelementptr inbounds %class.mpq, ptr %2, i32 0, i32 0
  %call4 = call noundef i32 @_ZN11mpq_managerILb1EE7bitsizeERK3mpz(ptr noundef nonnull align 8 dereferenceable(728) %this1, ptr noundef nonnull align 8 dereferenceable(16) %m_num3)
  %3 = load ptr, ptr %a.addr, align 8
  %m_den = getelementptr inbounds %class.mpq, ptr %3, i32 0, i32 1
  %call5 = call noundef i32 @_ZN11mpq_managerILb1EE7bitsizeERK3mpz(ptr noundef nonnull align 8 dereferenceable(728) %this1, ptr noundef nonnull align 8 dereferenceable(16) %m_den)
  %add = add i32 %call4, %call5
  br label %cond.end

cond.end:                                         ; preds = %cond.false, %cond.true
  %cond = phi i32 [ %call2, %cond.true ], [ %add, %cond.false ]
  ret i32 %cond
}

; Function Attrs: mustprogress uwtable
define linkonce_odr hidden void @_ZN11mpq_managerILb1EE3setER3mpqRKS1_(ptr noundef nonnull align 8 dereferenceable(728) %this, ptr noundef nonnull align 8 dereferenceable(32) %target, ptr noundef nonnull align 8 dereferenceable(32) %source) #5 comdat align 2 {
entry:
  %this.addr = alloca ptr, align 8
  %target.addr = alloca ptr, align 8
  %source.addr = alloca ptr, align 8
  store ptr %this, ptr %this.addr, align 8
  store ptr %target, ptr %target.addr, align 8
  store ptr %source, ptr %source.addr, align 8
  %this1 = load ptr, ptr %this.addr, align 8
  %0 = load ptr, ptr %target.addr, align 8
  %m_num = getelementptr inbounds %class.mpq, ptr %0, i32 0, i32 0
  %1 = load ptr, ptr %source.addr, align 8
  %m_num2 = getelementptr inbounds %class.mpq, ptr %1, i32 0, i32 0
  call void @_ZN11mpq_managerILb1EE3setER3mpzRKS1_(ptr noundef nonnull align 8 dereferenceable(728) %this1, ptr noundef nonnull align 8 dereferenceable(16) %m_num, ptr noundef nonnull align 8 dereferenceable(16) %m_num2)
  %2 = load ptr, ptr %target.addr, align 8
  %m_den = getelementptr inbounds %class.mpq, ptr %2, i32 0, i32 1
  %3 = load ptr, ptr %source.addr, align 8
  %m_den3 = getelementptr inbounds %class.mpq, ptr %3, i32 0, i32 1
  call void @_ZN11mpq_managerILb1EE3setER3mpzRKS1_(ptr noundef nonnull align 8 dereferenceable(728) %this1, ptr noundef nonnull align 8 dereferenceable(16) %m_den, ptr noundef nonnull align 8 dereferenceable(16) %m_den3)
  ret void
}

; Function Attrs: mustprogress nounwind uwtable
define linkonce_odr hidden noundef nonnull align 8 dereferenceable(728) ptr @_ZN8rational1mEv() #4 comdat align 2 {
entry:
  %0 = load ptr, ptr @_ZN8rational13g_mpq_managerE, align 8
  ret ptr %0
}

; Function Attrs: mustprogress uwtable
define linkonce_odr hidden void @_ZN3mpqC2Ev(ptr noundef nonnull align 8 dereferenceable(32) %this) unnamed_addr #5 comdat align 2 {
entry:
  %this.addr = alloca ptr, align 8
  store ptr %this, ptr %this.addr, align 8
  %this1 = load ptr, ptr %this.addr, align 8
  %m_num = getelementptr inbounds %class.mpq, ptr %this1, i32 0, i32 0
  call void @_ZN3mpzC2Ev(ptr noundef nonnull align 8 dereferenceable(16) %m_num)
  %m_den = getelementptr inbounds %class.mpq, ptr %this1, i32 0, i32 1
  call void @_ZN3mpzC2Ei(ptr noundef nonnull align 8 dereferenceable(16) %m_den, i32 noundef 1)
  ret void
}

; Function Attrs: mustprogress uwtable
define linkonce_odr hidden noundef i32 @_ZNK8rational7bitsizeEv(ptr noundef nonnull align 8 dereferenceable(32) %this) #5 comdat align 2 {
entry:
  %this.addr = alloca ptr, align 8
  store ptr %this, ptr %this.addr, align 8
  %this1 = load ptr, ptr %this.addr, align 8
  %call = call noundef nonnull align 8 dereferenceable(728) ptr @_ZN8rational1mEv()
  %m_val = getelementptr inbounds %class.rational, ptr %this1, i32 0, i32 0
  %call2 = call noundef i32 @_ZN11mpq_managerILb1EE7bitsizeERK3mpq(ptr noundef nonnull align 8 dereferenceable(728) %call, ptr noundef nonnull align 8 dereferenceable(32) %m_val)
  ret i32 %call2
}

; Function Attrs: mustprogress uwtable
define linkonce_odr hidden void @_ZN8rationalC2ERK3mpq(ptr noundef nonnull align 8 dereferenceable(32) %this, ptr noundef nonnull align 8 dereferenceable(32) %q) unnamed_addr #5 comdat align 2 {
entry:
  %this.addr = alloca ptr, align 8
  %q.addr = alloca ptr, align 8
  store ptr %this, ptr %this.addr, align 8
  store ptr %q, ptr %q.addr, align 8
  %this1 = load ptr, ptr %this.addr, align 8
  %m_val = getelementptr inbounds %class.rational, ptr %this1, i32 0, i32 0
  call void @_ZN3mpqC2Ev(ptr noundef nonnull align 8 dereferenceable(32) %m_val)
  %call = call noundef nonnull align 8 dereferenceable(728) ptr @_ZN8rational1mEv()
  %m_val2 = getelementptr inbounds %class.rational, ptr %this1, i32 0, i32 0
  %0 = load ptr, ptr %q.addr, align 8
  call void @_ZN11mpq_managerILb1EE3setER3mpqRKS1_(ptr noundef nonnull align 8 dereferenceable(728) %call, ptr noundef nonnull align 8 dereferenceable(32) %m_val2, ptr noundef nonnull align 8 dereferenceable(32) %0)
  ret void
}

; Function Attrs: mustprogress uwtable
define hidden noundef zeroext i1 @_ZNK3nla15monomial_bounds10is_too_bigERK3mpq(ptr noundef nonnull align 8 dereferenceable(192) %this, ptr noundef nonnull align 8 dereferenceable(32) %q) #5 align 2 personality ptr @__gxx_personality_v0 {
entry:
  %this.addr = alloca ptr, align 8
  %q.addr = alloca ptr, align 8
  %ref.tmp = alloca %class.rational, align 8
  %exn.slot = alloca ptr, align 8
  %ehselector.slot = alloca i32, align 4
  store ptr %this, ptr %this.addr, align 8
  store ptr %q, ptr %q.addr, align 8
  %0 = load ptr, ptr %q.addr, align 8
  call void @_ZN8rationalC2ERK3mpq(ptr noundef nonnull align 8 dereferenceable(32) %ref.tmp, ptr noundef nonnull align 8 dereferenceable(32) %0)
  %call = invoke noundef i32 @_ZNK8rational7bitsizeEv(ptr noundef nonnull align 8 dereferenceable(32) %ref.tmp)
          to label %invoke.cont unwind label %lpad

invoke.cont:                                      ; preds = %entry
  %cmp = icmp ugt i32 %call, 256
  call void @_ZN8rationalD2Ev(ptr noundef nonnull align 8 dereferenceable(32) %ref.tmp) #3
  ret i1 %cmp

lpad:                                             ; preds = %entry
  %1 = landingpad { ptr, i32 }
          cleanup
  %2 = extractvalue { ptr, i32 } %1, 0
  store ptr %2, ptr %exn.slot, align 8
  %3 = extractvalue { ptr, i32 } %1, 1
  store i32 %3, ptr %ehselector.slot, align 4
  call void @_ZN8rationalD2Ev(ptr noundef nonnull align 8 dereferenceable(32) %ref.tmp) #3
  br label %eh.resume

eh.resume:                                        ; preds = %lpad
  %exn = load ptr, ptr %exn.slot, align 8
  %sel = load i32, ptr %ehselector.slot, align 4
  %lpad.val = insertvalue { ptr, i32 } poison, ptr %exn, 0
  %lpad.val2 = insertvalue { ptr, i32 } %lpad.val, i32 %sel, 1
  resume { ptr, i32 } %lpad.val2
}