; Function Attrs: mustprogress uwtable
define hidden noundef zeroext i1 @_ZNK3nla15monomial_bounds10is_too_bigERK3mpq(ptr nocapture nonnull readnone align 8 %this, ptr noundef nonnull align 8 dereferenceable(32) %q) local_unnamed_addr #3 align 2 personality ptr @__gxx_personality_v0 {
entry:
  %ref.tmp = alloca %class.rational, align 8
  store i32 0, ptr %ref.tmp, align 8
  %m_kind.i.i.i = getelementptr inbounds i8, ptr %ref.tmp, i64 4
  store i8 0, ptr %m_kind.i.i.i, align 4
  %m_ptr.i.i.i = getelementptr inbounds i8, ptr %ref.tmp, i64 8
  store ptr null, ptr %m_ptr.i.i.i, align 8
  %m_den.i.i = getelementptr inbounds i8, ptr %ref.tmp, i64 16
  store i32 1, ptr %m_den.i.i, align 8
  %m_kind.i1.i.i = getelementptr inbounds i8, ptr %ref.tmp, i64 20
  store i8 0, ptr %m_kind.i1.i.i, align 4
  %m_ptr.i4.i.i = getelementptr inbounds i8, ptr %ref.tmp, i64 24
  store ptr null, ptr %m_ptr.i4.i.i, align 8
  %0 = load ptr, ptr @_ZN8rational13g_mpq_managerE, align 8
  %m_kind.i.i.i.i.i = getelementptr inbounds i8, ptr %q, i64 4
  %bf.load.i.i.i.i.i = load i8, ptr %m_kind.i.i.i.i.i, align 4
  %bf.clear.i.i.i.i.i = and i8 %bf.load.i.i.i.i.i, 1
  %cmp.i.i.i.i.i = icmp eq i8 %bf.clear.i.i.i.i.i, 0
  br i1 %cmp.i.i.i.i.i, label %if.then.i.i.i.i, label %if.else.i.i.i.i

if.then.i.i.i.i:                                  ; preds = %entry
  %1 = load i32, ptr %q, align 8
  store i32 %1, ptr %ref.tmp, align 8
  store i8 0, ptr %m_kind.i.i.i, align 4
  br label %_ZN11mpq_managerILb1EE3setER3mpzRKS1_.exit.i.i

if.else.i.i.i.i:                                  ; preds = %entry
  call void @_ZN11mpz_managerILb1EE7big_setER3mpzRKS1_(ptr noundef nonnull align 8 dereferenceable(600) %0, ptr noundef nonnull align 8 dereferenceable(16) %ref.tmp, ptr noundef nonnull align 8 dereferenceable(16) %q)
  br label %_ZN11mpq_managerILb1EE3setER3mpzRKS1_.exit.i.i

_ZN11mpq_managerILb1EE3setER3mpzRKS1_.exit.i.i:   ; preds = %if.else.i.i.i.i, %if.then.i.i.i.i
  %m_den3.i.i = getelementptr inbounds i8, ptr %q, i64 16
  %m_kind.i.i.i3.i.i = getelementptr inbounds i8, ptr %q, i64 20
  %bf.load.i.i.i4.i.i = load i8, ptr %m_kind.i.i.i3.i.i, align 4
  %bf.clear.i.i.i5.i.i = and i8 %bf.load.i.i.i4.i.i, 1
  %cmp.i.i.i6.i.i = icmp eq i8 %bf.clear.i.i.i5.i.i, 0
  br i1 %cmp.i.i.i6.i.i, label %if.then.i.i8.i.i, label %if.else.i.i7.i.i

if.then.i.i8.i.i:                                 ; preds = %_ZN11mpq_managerILb1EE3setER3mpzRKS1_.exit.i.i
  %2 = load i32, ptr %m_den3.i.i, align 8
  store i32 %2, ptr %m_den.i.i, align 8
  %bf.load.i.i10.i.i = load i8, ptr %m_kind.i1.i.i, align 4
  %bf.clear.i.i11.i.i = and i8 %bf.load.i.i10.i.i, -2
  store i8 %bf.clear.i.i11.i.i, ptr %m_kind.i1.i.i, align 4
  br label %_ZN8rationalC2ERK3mpq.exit

if.else.i.i7.i.i:                                 ; preds = %_ZN11mpq_managerILb1EE3setER3mpzRKS1_.exit.i.i
  call void @_ZN11mpz_managerILb1EE7big_setER3mpzRKS1_(ptr noundef nonnull align 8 dereferenceable(600) %0, ptr noundef nonnull align 8 dereferenceable(16) %m_den.i.i, ptr noundef nonnull align 8 dereferenceable(16) %m_den3.i.i)
  %bf.load.i.i.i.i.i.i.pre = load i8, ptr %m_kind.i1.i.i, align 4
  %.pre = load i32, ptr %m_den.i.i, align 8
  %3 = and i8 %bf.load.i.i.i.i.i.i.pre, 1
  %4 = icmp eq i8 %3, 0
  br label %_ZN8rationalC2ERK3mpq.exit

_ZN8rationalC2ERK3mpq.exit:                       ; preds = %if.then.i.i8.i.i, %if.else.i.i7.i.i
  %5 = phi i32 [ %2, %if.then.i.i8.i.i ], [ %.pre, %if.else.i.i7.i.i ]
  %bf.load.i.i.i.i.i.i = phi i1 [ true, %if.then.i.i8.i.i ], [ %4, %if.else.i.i7.i.i ]
  %6 = load ptr, ptr @_ZN8rational13g_mpq_managerE, align 8
  %call.i.i.i2 = invoke noundef i32 @_ZN11mpz_managerILb1EE7bitsizeERK3mpz(ptr noundef nonnull align 8 dereferenceable(600) %6, ptr noundef nonnull align 8 dereferenceable(16) %ref.tmp)
          to label %call.i.i.i.noexc unwind label %lpad

call.i.i.i.noexc:                                 ; preds = %_ZN8rationalC2ERK3mpq.exit
  %cmp.i.i.i.i.i1 = icmp eq i32 %5, 1
  %7 = select i1 %bf.load.i.i.i.i.i.i, i1 %cmp.i.i.i.i.i1, i1 false
  br i1 %7, label %invoke.cont, label %cond.false.i.i

cond.false.i.i:                                   ; preds = %call.i.i.i.noexc
  %call.i5.i.i3 = invoke noundef i32 @_ZN11mpz_managerILb1EE7bitsizeERK3mpz(ptr noundef nonnull align 8 dereferenceable(600) %6, ptr noundef nonnull align 8 dereferenceable(16) %m_den.i.i)
          to label %call.i5.i.i.noexc unwind label %lpad

call.i5.i.i.noexc:                                ; preds = %cond.false.i.i
  %add.i.i = add i32 %call.i5.i.i3, %call.i.i.i2
  br label %invoke.cont

invoke.cont:                                      ; preds = %call.i5.i.i.noexc, %call.i.i.i.noexc
  %cond.i.i = phi i32 [ %add.i.i, %call.i5.i.i.noexc ], [ %call.i.i.i2, %call.i.i.i.noexc ]
  %8 = load ptr, ptr @_ZN8rational13g_mpq_managerE, align 8
  invoke void @_ZN11mpz_managerILb1EE3delEPS0_R3mpz(ptr noundef %8, ptr noundef nonnull align 8 dereferenceable(16) %ref.tmp)
          to label %.noexc.i unwind label %terminate.lpad.i

.noexc.i:                                         ; preds = %invoke.cont
  invoke void @_ZN11mpz_managerILb1EE3delEPS0_R3mpz(ptr noundef %8, ptr noundef nonnull align 8 dereferenceable(16) %m_den.i.i)
          to label %_ZN8rationalD2Ev.exit unwind label %terminate.lpad.i

terminate.lpad.i:                                 ; preds = %.noexc.i, %invoke.cont
  %9 = landingpad { ptr, i32 }
          catch ptr null
  %10 = extractvalue { ptr, i32 } %9, 0
  call void @__clang_call_terminate(ptr %10) #17
  unreachable

_ZN8rationalD2Ev.exit:                            ; preds = %.noexc.i
  %cmp = icmp ugt i32 %cond.i.i, 256
  ret i1 %cmp

lpad:                                             ; preds = %cond.false.i.i, %_ZN8rationalC2ERK3mpq.exit
  %11 = landingpad { ptr, i32 }
          cleanup
  call void @_ZN8rationalD2Ev(ptr noundef nonnull align 8 dereferenceable(32) %ref.tmp) #16
  resume { ptr, i32 } %11
}